target datalayout = "e-m:e-p270:32:32-p271:32:32-p272:64:64-i64:64-i128:128-f80:128-n8:16:32:64-S128"
target triple = "x86_64-pc-linux-gnu"

%struct.Curl_easy = type { i32, i64, ptr, ptr, ptr, %struct.Curl_llist_element, %struct.Curl_llist_element, i32, i32, %struct.Curl_message, %struct.easy_pollset, %struct.Names, ptr, ptr, ptr, %struct.SingleRequest, %struct.UserDefined, ptr, ptr, %struct.Progress, %struct.UrlState, ptr, %struct.PureInfo, %struct.curl_tlssessioninfo }
%struct.Curl_llist_element = type { ptr, ptr, ptr }
%struct.Curl_message = type { %struct.Curl_llist_element, %struct.CURLMsg }
%struct.CURLMsg = type { i32, ptr, %union.anon }
%union.anon = type { ptr }
%struct.easy_pollset = type { [5 x i32], i32, [5 x i8] }
%struct.Names = type { ptr, i32 }
%struct.SingleRequest = type <{ i64, i64, i64, i64, i64, %struct.curltime, i32, i32, i32, i32, i64, i32, i32, %struct.curltime, i32, i32, ptr, i64, i64, ptr, ptr, i64, ptr, %union.anon.0, ptr, [2 x i8], i8, i16, [3 x i8] }>
%struct.curltime = type { i64, i32 }
%union.anon.0 = type { ptr }
%struct.UserDefined = type <{ ptr, ptr, ptr, ptr, ptr, ptr, i16, [6 x i8], i64, i64, i64, ptr, ptr, i64, i16, i16, [4 x i8], ptr, ptr, ptr, ptr, ptr, ptr, ptr, ptr, ptr, ptr, ptr, ptr, ptr, ptr, ptr, ptr, ptr, ptr, ptr, ptr, ptr, ptr, ptr, i32, i32, i32, i32, i64, i64, i64, i64, i64, i64, i64, i64, ptr, ptr, %struct.curl_mimepart, ptr, ptr, i64, i8, i8, i8, [5 x i8], %struct.ssl_config_data, %struct.ssl_config_data, ptr, i16, i8, i8, [4 x i8], %struct.ssl_general_config, i32, i32, i32, [4 x i8], ptr, ptr, i8, [7 x i8], i64, i8, i8, i8, i8, i32, ptr, ptr, ptr, i8, i8, [2 x i8], i32, [80 x ptr], [8 x ptr], i32, i32, i32, [4 x i8], ptr, ptr, ptr, ptr, ptr, i8, [3 x i8], i32, i32, [4 x i8], i64, %struct.Curl_data_priority, ptr, ptr, i64, ptr, ptr, ptr, ptr, ptr, i8, [3 x i8], i32, i8, i8, i56, [6 x i8] }>
%struct.curl_mimepart = type { ptr, ptr, i32, i32, ptr, ptr, ptr, ptr, ptr, ptr, ptr, ptr, ptr, ptr, ptr, i64, %struct.mime_state, ptr, %struct.mime_encoder_state, i64 }
%struct.mime_state = type { i32, ptr, i64 }
%struct.mime_encoder_state = type { i64, i64, i64, [256 x i8] }
%struct.ssl_config_data = type { %struct.ssl_primary_config, i64, ptr, ptr, ptr, ptr, ptr, ptr, ptr, i8 }
%struct.ssl_primary_config = type { ptr, ptr, ptr, ptr, ptr, ptr, ptr, ptr, ptr, ptr, ptr, ptr, i8, i32, i8, i8 }
%struct.ssl_general_config = type { i64, i32 }
%struct.Curl_data_priority = type { ptr, ptr, i32, i8 }
%struct.Progress = type { i64, i64, i64, i64, i64, i64, i32, i32, i64, i64, i64, i64, i64, i64, i64, i64, i64, i64, %struct.curltime, %struct.curltime, %struct.curltime, %struct.curltime, %struct.curltime, i64, %struct.curltime, i64, [6 x i64], [6 x %struct.curltime], i32, i8 }
%struct.UrlState = type { ptr, %struct.curltime, i64, i64, %struct.dynbuf, ptr, ptr, ptr, i64, ptr, i32, i32, i32, ptr, i64, [3 x %struct.tempbuf], i32, i32, ptr, i64, i32, ptr, %struct.digestdata, %struct.digestdata, %struct.auth, %struct.auth, %struct.Curl_async, ptr, %struct.curltime, %struct.Curl_tree, %struct.Curl_llist, [15 x %struct.time_node], ptr, i8, i64, ptr, i64, i64, %struct.Curl_data_priority, ptr, ptr, ptr, %struct.urlpieces, ptr, ptr, ptr, ptr, ptr, i64, %struct.dynbuf, %struct.Curl_llist, [2 x %struct.curl_header], ptr, i32, ptr, %struct.dynamically_allocated_data, i8, i8, i8, i8, i24 }
%struct.tempbuf = type { %struct.dynbuf, i32, i8 }
%struct.digestdata = type { ptr, ptr, ptr, ptr, ptr, ptr, i32, i8, i8 }
%struct.auth = type { i64, i64, i64, i8 }
%struct.Curl_async = type { ptr, ptr, ptr, ptr, i32, i32, i8 }
%struct.Curl_tree = type { ptr, ptr, ptr, ptr, %struct.curltime, ptr }
%struct.time_node = type { %struct.Curl_llist_element, %struct.curltime, i32 }
%struct.urlpieces = type { ptr, ptr, ptr, ptr, ptr, ptr, ptr, ptr }
%struct.dynbuf = type { ptr, i64, i64, i64 }
%struct.Curl_llist = type { ptr, ptr, ptr, i64 }
%struct.curl_header = type { ptr, ptr, i64, i64, i32, ptr }
%struct.dynamically_allocated_data = type { ptr, ptr, ptr, ptr, ptr, ptr, ptr, ptr, ptr, ptr, ptr, ptr, ptr, ptr }
%struct.PureInfo = type { i32, i32, i32, i64, i64, i64, i64, i64, ptr, ptr, i64, i32, [46 x i8], i32, i32, [46 x i8], i32, ptr, i32, %struct.curl_certinfo, i32, i8 }
%struct.curl_certinfo = type { i32, ptr }
%struct.curl_tlssessioninfo = type { i32, ptr }
%struct.connectdata = type { %struct.Curl_llist_element, ptr, ptr, i64, ptr, ptr, %struct.hostname, ptr, ptr, %struct.hostname, %struct.proxy_info, %struct.proxy_info, [46 x i8], ptr, ptr, ptr, ptr, ptr, %struct.curltime, %struct.curltime, %struct.curltime, [2 x i32], [2 x ptr], [2 x ptr], [2 x ptr], %struct.ssl_primary_config, %struct.ssl_primary_config, %struct.ConnectBits, ptr, ptr, %struct.curltime, i32, i32, %struct.Curl_llist, ptr, ptr, i32, i32, %struct.ntlmdata, %struct.ntlmdata, %union.anon.1, ptr, ptr, i16, i32, i32, i32, i32, i32, i16, i16, i8, i8, i8, i8, i8, i8, i8 }
%struct.hostname = type { ptr, ptr, ptr, ptr }
%struct.proxy_info = type { %struct.hostname, i32, i8, ptr, ptr }
%struct.ConnectBits = type { i32 }
%struct.ntlmdata = type { i32, [8 x i8], i32, ptr }
%union.anon.1 = type { %struct.ftp_conn }
%struct.ftp_conn = type { %struct.pingpong, ptr, ptr, ptr, ptr, ptr, ptr, ptr, i8, i64, ptr, i64, i32, i32, i32, i32, i32, i16, i8, i8, i8, i8, i8 }
%struct.pingpong = type { i64, i8, ptr, i64, i64, %struct.curltime, i64, %struct.dynbuf, %struct.dynbuf, i64, i64, ptr, ptr }
%struct.smb_conn = type { i32, ptr, ptr, ptr, [8 x i8], i32, i16, ptr, i64, i64, i64, i64 }
%struct.smb_request = type { i32, ptr, i16, i16, i32 }

@Curl_ccalloc = external global ptr, align 8
@Curl_cstrdup = external global ptr, align 8
@Curl_cfree = external global ptr, align 8
@.str.2 = private unnamed_addr constant [34 x i8] c"missing share in URL path for SMB\00", align 1

; Function Attrs: nounwind uwtable
define internal i32 @smb_parse_url_path(ptr noundef %0, ptr noundef %1) #0 {
  %3 = alloca i32, align 4
  %4 = alloca ptr, align 8
  %5 = alloca ptr, align 8
  %6 = alloca ptr, align 8
  %7 = alloca ptr, align 8
  %8 = alloca ptr, align 8
  %9 = alloca ptr, align 8
  %10 = alloca i32, align 4
  store ptr %0, ptr %4, align 8
  store ptr %1, ptr %5, align 8
  %11 = load ptr, ptr %4, align 8
  %12 = getelementptr inbounds %struct.Curl_easy, ptr %11, i32 0, i32 15
  %13 = getelementptr inbounds %struct.SingleRequest, ptr %12, i32 0, i32 23
  %14 = load ptr, ptr %13, align 8
  store ptr %14, ptr %6, align 8
  %15 = load ptr, ptr %5, align 8
  %16 = getelementptr inbounds %struct.connectdata, ptr %15, i32 0, i32 40
  store ptr %16, ptr %7, align 8
  %17 = load ptr, ptr %4, align 8
  %18 = getelementptr inbounds %struct.Curl_easy, ptr %17, i32 0, i32 20
  %19 = getelementptr inbounds %struct.UrlState, ptr %18, i32 0, i32 42
  %20 = getelementptr inbounds %struct.urlpieces, ptr %19, i32 0, i32 6
  %21 = load ptr, ptr %20, align 8
  %22 = call i32 @Curl_urldecode(ptr noundef %21, i64 noundef 0, ptr noundef %8, ptr noundef null, i32 noundef 3)
  store i32 %22, ptr %10, align 4
  %23 = load i32, ptr %10, align 4
  %24 = icmp ne i32 %23, 0
  br i1 %24, label %25, label %27

25:                                               ; preds = %2
  %26 = load i32, ptr %10, align 4
  store i32 %26, ptr %3, align 4
  br label %102

27:                                               ; preds = %2
  %28 = load ptr, ptr @Curl_cstrdup, align 8
  %29 = load ptr, ptr %8, align 8
  %30 = load i8, ptr %29, align 1
  %31 = sext i8 %30 to i32
  %32 = icmp eq i32 %31, 47
  br i1 %32, label %38, label %33

33:                                               ; preds = %27
  %34 = load ptr, ptr %8, align 8
  %35 = load i8, ptr %34, align 1
  %36 = sext i8 %35 to i32
  %37 = icmp eq i32 %36, 92
  br i1 %37, label %38, label %41

38:                                               ; preds = %33, %27
  %39 = load ptr, ptr %8, align 8
  %40 = getelementptr inbounds i8, ptr %39, i64 1
  br label %43

41:                                               ; preds = %33
  %42 = load ptr, ptr %8, align 8
  br label %43

43:                                               ; preds = %41, %38
  %44 = phi ptr [ %40, %38 ], [ %42, %41 ]
  %45 = call ptr %28(ptr noundef %44)
  %46 = load ptr, ptr %7, align 8
  %47 = getelementptr inbounds %struct.smb_conn, ptr %46, i32 0, i32 3
  store ptr %45, ptr %47, align 8
  %48 = load ptr, ptr @Curl_cfree, align 8
  %49 = load ptr, ptr %8, align 8
  call void %48(ptr noundef %49)
  %50 = load ptr, ptr %7, align 8
  %51 = getelementptr inbounds %struct.smb_conn, ptr %50, i32 0, i32 3
  %52 = load ptr, ptr %51, align 8
  %53 = icmp ne ptr %52, null
  br i1 %53, label %55, label %54

54:                                               ; preds = %43
  store i32 27, ptr %3, align 4
  br label %102

55:                                               ; preds = %43
  %56 = load ptr, ptr %7, align 8
  %57 = getelementptr inbounds %struct.smb_conn, ptr %56, i32 0, i32 3
  %58 = load ptr, ptr %57, align 8
  %59 = call ptr @strchr(ptr noundef %58, i32 noundef 47) #7
  store ptr %59, ptr %9, align 8
  %60 = load ptr, ptr %9, align 8
  %61 = icmp ne ptr %60, null
  br i1 %61, label %67, label %62

62:                                               ; preds = %55
  %63 = load ptr, ptr %7, align 8
  %64 = getelementptr inbounds %struct.smb_conn, ptr %63, i32 0, i32 3
  %65 = load ptr, ptr %64, align 8
  %66 = call ptr @strchr(ptr noundef %65, i32 noundef 92) #7
  store ptr %66, ptr %9, align 8
  br label %67

67:                                               ; preds = %62, %55
  %68 = load ptr, ptr %9, align 8
  %69 = icmp ne ptr %68, null
  br i1 %69, label %80, label %70

70:                                               ; preds = %67
  br label %71

71:                                               ; preds = %70
  %72 = load ptr, ptr @Curl_cfree, align 8
  %73 = load ptr, ptr %7, align 8
  %74 = getelementptr inbounds %struct.smb_conn, ptr %73, i32 0, i32 3
  %75 = load ptr, ptr %74, align 8
  call void %72(ptr noundef %75)
  %76 = load ptr, ptr %7, align 8
  %77 = getelementptr inbounds %struct.smb_conn, ptr %76, i32 0, i32 3
  store ptr null, ptr %77, align 8
  br label %78

78:                                               ; preds = %71
  %79 = load ptr, ptr %4, align 8
  call void (ptr, ptr, ...) @Curl_failf(ptr noundef %79, ptr noundef @.str.2)
  store i32 3, ptr %3, align 4
  br label %102

80:                                               ; preds = %67
  %81 = load ptr, ptr %9, align 8
  %82 = getelementptr inbounds i8, ptr %81, i32 1
  store ptr %82, ptr %9, align 8
  store i8 0, ptr %81, align 1
  %83 = load ptr, ptr %9, align 8
  %84 = load ptr, ptr %6, align 8
  %85 = getelementptr inbounds %struct.smb_request, ptr %84, i32 0, i32 1
  store ptr %83, ptr %85, align 8
  br label %86

86:                                               ; preds = %98, %80
  %87 = load ptr, ptr %9, align 8
  %88 = load i8, ptr %87, align 1
  %89 = icmp ne i8 %88, 0
  br i1 %89, label %90, label %101

90:                                               ; preds = %86
  %91 = load ptr, ptr %9, align 8
  %92 = load i8, ptr %91, align 1
  %93 = sext i8 %92 to i32
  %94 = icmp eq i32 %93, 47
  br i1 %94, label %95, label %97

95:                                               ; preds = %90
  %96 = load ptr, ptr %9, align 8
  store i8 92, ptr %96, align 1
  br label %97

97:                                               ; preds = %95, %90
  br label %98

98:                                               ; preds = %97
  %99 = load ptr, ptr %9, align 8
  %100 = getelementptr inbounds i8, ptr %99, i32 1
  store ptr %100, ptr %9, align 8
  br label %86, !llvm.loop !5

101:                                              ; preds = %86
  store i32 0, ptr %3, align 4
  br label %102

102:                                              ; preds = %101, %78, %54, %25
  %103 = load i32, ptr %3, align 4
  ret i32 %103
}

; Function Attrs: nounwind uwtable
define internal i32 @smb_setup_connection(ptr noundef %0, ptr noundef %1) #0 {
  %3 = alloca i32, align 4
  %4 = alloca ptr, align 8
  %5 = alloca ptr, align 8
  %6 = alloca ptr, align 8
  store ptr %0, ptr %4, align 8
  store ptr %1, ptr %5, align 8
  %7 = load ptr, ptr @Curl_ccalloc, align 8
  %8 = call ptr %7(i64 noundef 1, i64 noundef 24)
  store ptr %8, ptr %6, align 8
  %9 = load ptr, ptr %4, align 8
  %10 = getelementptr inbounds %struct.Curl_easy, ptr %9, i32 0, i32 15
  %11 = getelementptr inbounds %struct.SingleRequest, ptr %10, i32 0, i32 23
  store ptr %8, ptr %11, align 8
  %12 = load ptr, ptr %6, align 8
  %13 = icmp ne ptr %12, null
  br i1 %13, label %15, label %14

14:                                               ; preds = %2
  store i32 27, ptr %3, align 4
  br label %19

15:                                               ; preds = %2
  %16 = load ptr, ptr %4, align 8
  %17 = load ptr, ptr %5, align 8
  %18 = call i32 @smb_parse_url_path(ptr noundef %16, ptr noundef %17)
  store i32 %18, ptr %3, align 4
  br label %19

19:                                               ; preds = %15, %14
  %20 = load i32, ptr %3, align 4
  ret i32 %20
}